target datalayout = "e-m:e-p270:32:32-p271:32:32-p272:64:64-i64:64-i128:128-f80:128-n8:16:32:64-S128"
target triple = "x86_64-pc-linux-gnu"

; Function Attrs: nounwind uwtable
define internal void @filter_complex_low(ptr noundef %0, ptr noundef %1, ptr noundef %2, i32 noundef %3) #2 {
  %5 = alloca ptr, align 8
  %6 = alloca ptr, align 8
  %7 = alloca ptr, align 8
  %8 = alloca i32, align 4
  %9 = alloca i32, align 4
  store ptr %0, ptr %5, align 8, !tbaa !66
  store ptr %1, ptr %6, align 8, !tbaa !99
  store ptr %2, ptr %7, align 8, !tbaa !100
  store i32 %3, ptr %8, align 4, !tbaa !24
  call void @llvm.lifetime.start.p0(i64 4, ptr %9) #10
  store i32 0, ptr %9, align 4, !tbaa !24
  br label %10

10:                                               ; preds = %70, %4
  %11 = load i32, ptr %9, align 4, !tbaa !24
  %12 = load i32, ptr %8, align 4, !tbaa !24
  %13 = icmp slt i32 %11, %12
  br i1 %13, label %14, label %73

14:                                               ; preds = %10
  %15 = load ptr, ptr %6, align 8, !tbaa !99
  %16 = getelementptr inbounds ptr, ptr %15, i64 0
  %17 = load ptr, ptr %16, align 8, !tbaa !88
  %18 = getelementptr inbounds nuw i8, ptr %17, i32 1
  store ptr %18, ptr %16, align 8, !tbaa !88
  %19 = load i8, ptr %17, align 1, !tbaa !91
  %20 = zext i8 %19 to i32
  %21 = load ptr, ptr %7, align 8, !tbaa !100
  %22 = getelementptr inbounds i16, ptr %21, i64 0
  %23 = load i16, ptr %22, align 2, !tbaa !102
  %24 = sext i16 %23 to i32
  %25 = mul nsw i32 %20, %24
  %26 = load ptr, ptr %5, align 8, !tbaa !66
  store i32 %25, ptr %26, align 4, !tbaa !24
  %27 = load ptr, ptr %6, align 8, !tbaa !99
  %28 = getelementptr inbounds ptr, ptr %27, i64 1
  %29 = load ptr, ptr %28, align 8, !tbaa !88
  %30 = getelementptr inbounds nuw i8, ptr %29, i32 1
  store ptr %30, ptr %28, align 8, !tbaa !88
  %31 = load i8, ptr %29, align 1, !tbaa !91
  %32 = zext i8 %31 to i32
  %33 = load ptr, ptr %7, align 8, !tbaa !100
  %34 = getelementptr inbounds i16, ptr %33, i64 1
  %35 = load i16, ptr %34, align 2, !tbaa !102
  %36 = sext i16 %35 to i32
  %37 = mul nsw i32 %32, %36
  %38 = load ptr, ptr %5, align 8, !tbaa !66
  %39 = load i32, ptr %38, align 4, !tbaa !24
  %40 = add nsw i32 %39, %37
  store i32 %40, ptr %38, align 4, !tbaa !24
  %41 = load ptr, ptr %6, align 8, !tbaa !99
  %42 = getelementptr inbounds ptr, ptr %41, i64 2
  %43 = load ptr, ptr %42, align 8, !tbaa !88
  %44 = getelementptr inbounds nuw i8, ptr %43, i32 1
  store ptr %44, ptr %42, align 8, !tbaa !88
  %45 = load i8, ptr %43, align 1, !tbaa !91
  %46 = zext i8 %45 to i32
  %47 = load ptr, ptr %7, align 8, !tbaa !100
  %48 = getelementptr inbounds i16, ptr %47, i64 2
  %49 = load i16, ptr %48, align 2, !tbaa !102
  %50 = sext i16 %49 to i32
  %51 = mul nsw i32 %46, %50
  %52 = load ptr, ptr %5, align 8, !tbaa !66
  %53 = load i32, ptr %52, align 4, !tbaa !24
  %54 = add nsw i32 %53, %51
  store i32 %54, ptr %52, align 4, !tbaa !24
  %55 = load ptr, ptr %6, align 8, !tbaa !99
  %56 = getelementptr inbounds ptr, ptr %55, i64 3
  %57 = load ptr, ptr %56, align 8, !tbaa !88
  %58 = getelementptr inbounds nuw i8, ptr %57, i32 1
  store ptr %58, ptr %56, align 8, !tbaa !88
  %59 = load i8, ptr %57, align 1, !tbaa !91
  %60 = zext i8 %59 to i32
  %61 = load ptr, ptr %7, align 8, !tbaa !100
  %62 = getelementptr inbounds i16, ptr %61, i64 3
  %63 = load i16, ptr %62, align 2, !tbaa !102
  %64 = sext i16 %63 to i32
  %65 = mul nsw i32 %60, %64
  %66 = load ptr, ptr %5, align 8, !tbaa !66
  %67 = getelementptr inbounds nuw i32, ptr %66, i32 1
  store ptr %67, ptr %5, align 8, !tbaa !66
  %68 = load i32, ptr %66, align 4, !tbaa !24
  %69 = add nsw i32 %68, %65
  store i32 %69, ptr %66, align 4, !tbaa !24
  br label %70

70:                                               ; preds = %14
  %71 = load i32, ptr %9, align 4, !tbaa !24
  %72 = add nsw i32 %71, 1
  store i32 %72, ptr %9, align 4, !tbaa !24
  br label %10, !llvm.loop !105

73:                                               ; preds = %10
  call void @llvm.lifetime.end.p0(i64 4, ptr %9) #10
  ret void
}