; Function Attrs: nofree norecurse nosync nounwind memory(read, argmem: readwrite, inaccessiblemem: none) uwtable
define internal void @filter_complex_low(ptr noundef writeonly captures(none) %0, ptr noundef captures(none) %1, ptr noundef readonly captures(none) %2, i32 noundef %3) #6 {
  %5 = icmp sgt i32 %3, 0
  br i1 %5, label %.lr.ph, label %._crit_edge

.lr.ph:                                           ; preds = %4
  %6 = load i16, ptr %2, align 2, !tbaa !87
  %7 = sext i16 %6 to i32
  %8 = getelementptr inbounds nuw i8, ptr %1, i64 8
  %9 = getelementptr inbounds nuw i8, ptr %2, i64 2
  %10 = load i16, ptr %9, align 2, !tbaa !87
  %11 = sext i16 %10 to i32
  %12 = getelementptr inbounds nuw i8, ptr %1, i64 16
  %13 = getelementptr inbounds nuw i8, ptr %2, i64 4
  %14 = load i16, ptr %13, align 2, !tbaa !87
  %15 = sext i16 %14 to i32
  %16 = getelementptr inbounds nuw i8, ptr %1, i64 24
  %17 = getelementptr inbounds nuw i8, ptr %2, i64 6
  %18 = load i16, ptr %17, align 2, !tbaa !87
  %19 = sext i16 %18 to i32
  %.promoted = load ptr, ptr %1, align 8, !tbaa !78
  %.promoted17 = load ptr, ptr %8, align 8, !tbaa !78
  %.promoted18 = load ptr, ptr %12, align 8, !tbaa !78
  %.promoted19 = load ptr, ptr %16, align 8, !tbaa !78
  br label %20

20:                                               ; preds = %.lr.ph, %20
  %21 = phi ptr [ %.promoted19, %.lr.ph ], [ %39, %20 ]
  %22 = phi ptr [ %.promoted18, %.lr.ph ], [ %34, %20 ]
  %23 = phi ptr [ %.promoted17, %.lr.ph ], [ %29, %20 ]
  %24 = phi ptr [ %.promoted, %.lr.ph ], [ %25, %20 ]
  %.016 = phi i32 [ 0, %.lr.ph ], [ %45, %20 ]
  %.01415 = phi ptr [ %0, %.lr.ph ], [ %43, %20 ]
  %25 = getelementptr inbounds nuw i8, ptr %24, i64 1
  store ptr %25, ptr %1, align 8, !tbaa !78
  %26 = load i8, ptr %24, align 1, !tbaa !81
  %27 = zext i8 %26 to i32
  %28 = mul nsw i32 %7, %27
  store i32 %28, ptr %.01415, align 4, !tbaa !58
  %29 = getelementptr inbounds nuw i8, ptr %23, i64 1
  store ptr %29, ptr %8, align 8, !tbaa !78
  %30 = load i8, ptr %23, align 1, !tbaa !81
  %31 = zext i8 %30 to i32
  %32 = mul nsw i32 %11, %31
  %33 = add nsw i32 %32, %28
  store i32 %33, ptr %.01415, align 4, !tbaa !58
  %34 = getelementptr inbounds nuw i8, ptr %22, i64 1
  store ptr %34, ptr %12, align 8, !tbaa !78
  %35 = load i8, ptr %22, align 1, !tbaa !81
  %36 = zext i8 %35 to i32
  %37 = mul nsw i32 %15, %36
  %38 = add nsw i32 %37, %33
  store i32 %38, ptr %.01415, align 4, !tbaa !58
  %39 = getelementptr inbounds nuw i8, ptr %21, i64 1
  store ptr %39, ptr %16, align 8, !tbaa !78
  %40 = load i8, ptr %21, align 1, !tbaa !81
  %41 = zext i8 %40 to i32
  %42 = mul nsw i32 %19, %41
  %43 = getelementptr inbounds nuw i8, ptr %.01415, i64 4
  %44 = add nsw i32 %42, %38
  store i32 %44, ptr %.01415, align 4, !tbaa !58
  %45 = add nuw nsw i32 %.016, 1
  %exitcond.not = icmp eq i32 %45, %3
  br i1 %exitcond.not, label %._crit_edge, label %20, !llvm.loop !90

._crit_edge:                                      ; preds = %20, %4
  ret void
}